; Function Attrs: mustprogress uwtable
define hidden noundef ptr @_ZNK6google8protobuf10Reflection14ReleaseMessageEPNS0_7MessageEPKNS0_15FieldDescriptorEPNS0_14MessageFactoryE(ptr noundef nonnull align 8 dereferenceable(96) %0, ptr noundef %1, ptr noundef %2, ptr noundef %3) local_unnamed_addr #3 align 2 personality ptr @__gxx_personality_v0 {
  %5 = tail call noundef ptr @_ZNK6google8protobuf10Reflection25UnsafeArenaReleaseMessageEPNS0_7MessageEPKNS0_15FieldDescriptorEPNS0_14MessageFactoryE(ptr noundef nonnull align 8 dereferenceable(96) %0, ptr noundef %1, ptr noundef %2, ptr noundef %3)
  %6 = getelementptr inbounds nuw i8, ptr %1, i64 8
  %7 = load i64, ptr %6, align 8, !tbaa !45
  %8 = and i64 %7, 1
  %.not.i = icmp eq i64 %8, 0
  %9 = and i64 %7, -4
  %10 = inttoptr i64 %9 to ptr
  br i1 %.not.i, label %_ZNK6google8protobuf11MessageLite21GetArenaForAllocationEv.exit, label %11, !prof !16

11:                                               ; preds = %4
  %12 = load ptr, ptr %10, align 8, !tbaa !129
  br label %_ZNK6google8protobuf11MessageLite21GetArenaForAllocationEv.exit

_ZNK6google8protobuf11MessageLite21GetArenaForAllocationEv.exit: ; preds = %4, %11
  %.0.i.i = phi ptr [ %12, %11 ], [ %10, %4 ]
  %13 = icmp ne ptr %.0.i.i, null
  %14 = icmp ne ptr %5, null
  %or.cond = and i1 %14, %13
  br i1 %or.cond, label %15, label %23

15:                                               ; preds = %_ZNK6google8protobuf11MessageLite21GetArenaForAllocationEv.exit
  %16 = load ptr, ptr %5, align 8, !tbaa !101
  %17 = getelementptr inbounds nuw i8, ptr %16, i64 24
  %18 = load ptr, ptr %17, align 8
  %19 = tail call noundef ptr %18(ptr noundef nonnull align 8 dereferenceable(16) %5, ptr noundef null)
  %20 = load ptr, ptr %19, align 8, !tbaa !101
  %21 = getelementptr inbounds nuw i8, ptr %20, i64 104
  %22 = load ptr, ptr %21, align 8
  tail call void %22(ptr noundef nonnull align 8 dereferenceable(16) %19, ptr noundef nonnull align 8 dereferenceable(16) %5)
  br label %23

23:                                               ; preds = %15, %_ZNK6google8protobuf11MessageLite21GetArenaForAllocationEv.exit
  %.0 = phi ptr [ %19, %15 ], [ %5, %_ZNK6google8protobuf11MessageLite21GetArenaForAllocationEv.exit ]
  ret ptr %.0
}